; Function Attrs: mustprogress uwtable
define void @_ZN6icu_7714ResourceBundleC2ER10UErrorCode(ptr noundef nonnull align 8 dereferenceable(24) initializes((0, 8), (16, 24)) %0, ptr noundef nonnull align 4 dereferenceable(4) %1) unnamed_addr #1 align 2 personality ptr @__gxx_personality_v0 {
  store ptr getelementptr inbounds nuw inrange(-16, 24) (i8, ptr @_ZTVN6icu_7714ResourceBundleE, i64 16), ptr %0, align 8, !tbaa !3
  %3 = getelementptr inbounds nuw i8, ptr %0, i64 16
  store ptr null, ptr %3, align 8, !tbaa !6
  %4 = invoke noundef nonnull align 8 dereferenceable(217) ptr @_ZN6icu_776Locale10getDefaultEv()
          to label %5 unwind label %11

5:                                                ; preds = %2
  %6 = getelementptr inbounds nuw i8, ptr %4, i64 40
  %7 = load ptr, ptr %6, align 8, !tbaa !13
  %8 = invoke ptr @ures_open_77(ptr noundef null, ptr noundef %7, ptr noundef nonnull %1)
          to label %9 unwind label %11

9:                                                ; preds = %5
  %10 = getelementptr inbounds nuw i8, ptr %0, i64 8
  store ptr %8, ptr %10, align 8, !tbaa !17
  ret void

11:                                               ; preds = %5, %2
  %12 = landingpad { ptr, i32 }
          cleanup
  tail call void @_ZN6icu_777UObjectD2Ev(ptr noundef nonnull align 8 dereferenceable(8) %0) #8
  resume { ptr, i32 } %12
}